target datalayout = "e-m:e-p270:32:32-p271:32:32-p272:64:64-i64:64-i128:128-f80:128-n8:16:32:64-S128"
target triple = "x86_64-pc-linux-gnu"

@proto_register_ixiatrailer.ixiatrailer_ett = internal global [1 x ptr] [ptr @ett_ixiatrailer], align 8
@.str.8 = private unnamed_addr constant [13 x i8] c"Ixia Trailer\00", align 1
@.str.9 = private unnamed_addr constant [12 x i8] c"IXIATRAILER\00", align 1
@.str.10 = private unnamed_addr constant [12 x i8] c"ixiatrailer\00", align 1
@proto_ixiatrailer = internal global i32 0, align 4
@.str.11 = private unnamed_addr constant [16 x i8] c"summary_in_tree\00", align 1
@.str.12 = private unnamed_addr constant [38 x i8] c"Show trailer summary in protocol tree\00", align 1
@.str.13 = private unnamed_addr constant [70 x i8] c"Whether the trailer summary line should be shown in the protocol tree\00", align 1
@ixiatrailer_summary_in_tree = internal global i8 1, align 1

; Function Attrs: null_pointer_is_valid sspstrong uwtable
define hidden void @proto_register_ixiatrailer() #0 {
  %1 = alloca ptr, align 8
  %2 = alloca ptr, align 8
  call void @llvm.lifetime.start.p0(i64 8, ptr %1) #4
  call void @llvm.lifetime.start.p0(i64 8, ptr %2) #4
  %3 = call i32 @proto_register_protocol(ptr noundef @.str.8, ptr noundef @.str.9, ptr noundef @.str.10)
  store i32 %3, ptr @proto_ixiatrailer, align 4
  %4 = load i32, ptr @proto_ixiatrailer, align 4
  call void @proto_register_field_array(i32 noundef %4, ptr noundef @proto_register_ixiatrailer.hf, i32 noundef 3)
  call void @proto_register_subtree_array(ptr noundef @proto_register_ixiatrailer.ixiatrailer_ett, i32 noundef 1)
  %5 = load i32, ptr @proto_ixiatrailer, align 4
  %6 = call ptr @expert_register_protocol(i32 noundef %5)
  store ptr %6, ptr %2, align 8
  %7 = load ptr, ptr %2, align 8
  call void @expert_register_field_array(ptr noundef %7, ptr noundef @proto_register_ixiatrailer.ei, i32 noundef 1)
  %8 = load i32, ptr @proto_ixiatrailer, align 4
  %9 = call ptr @prefs_register_protocol(i32 noundef %8, ptr noundef null)
  store ptr %9, ptr %1, align 8
  %10 = load ptr, ptr %1, align 8
  call void @prefs_register_bool_preference(ptr noundef %10, ptr noundef @.str.11, ptr noundef @.str.12, ptr noundef @.str.13, ptr noundef @ixiatrailer_summary_in_tree)
  call void @llvm.lifetime.end.p0(i64 8, ptr %2) #4
  call void @llvm.lifetime.end.p0(i64 8, ptr %1) #4
  ret void
}