; Function Attrs: null_pointer_is_valid sspstrong uwtable
define hidden void @proto_register_ixiatrailer() local_unnamed_addr #0 {
  %1 = tail call i32 @proto_register_protocol(ptr noundef nonnull @.str.8, ptr noundef nonnull @.str.9, ptr noundef nonnull @.str.10)
  store i32 %1, ptr @proto_ixiatrailer, align 4
  tail call void @proto_register_field_array(i32 noundef %1, ptr noundef nonnull @proto_register_ixiatrailer.hf, i32 noundef 3)
  tail call void @proto_register_subtree_array(ptr noundef nonnull @proto_register_ixiatrailer.ixiatrailer_ett, i32 noundef 1)
  %2 = load i32, ptr @proto_ixiatrailer, align 4
  %3 = tail call ptr @expert_register_protocol(i32 noundef %2)
  tail call void @expert_register_field_array(ptr noundef %3, ptr noundef nonnull @proto_register_ixiatrailer.ei, i32 noundef 1)
  %4 = load i32, ptr @proto_ixiatrailer, align 4
  %5 = tail call ptr @prefs_register_protocol(i32 noundef %4, ptr noundef null)
  tail call void @prefs_register_bool_preference(ptr noundef %5, ptr noundef nonnull @.str.11, ptr noundef nonnull @.str.12, ptr noundef nonnull @.str.13, ptr noundef nonnull @ixiatrailer_summary_in_tree)
  ret void
}